; Function Attrs: mustprogress uwtable
define noundef ptr @_Z8get_estrPSt6vectorI9t_inpfileSaIS0_EERKNSt7__cxx1112basic_stringIcSt11char_traitsIcESaIcEEEPKc(ptr noundef %0, ptr noundef nonnull readonly align 8 captures(none) dereferenceable(32) %1, ptr noundef %2) local_unnamed_addr #0 personality ptr @__gxx_personality_v0 {
  %4 = load ptr, ptr %1, align 8, !tbaa !15
  %5 = tail call noundef i32 @_Z8get_einpPSt6vectorI9t_inpfileSaIS0_EEPKc(ptr noundef %0, ptr noundef %4)
  %6 = icmp eq i32 %5, -1
  br i1 %6, label %7, label %18

7:                                                ; preds = %3
  %.not.i = icmp eq ptr %2, null
  %8 = getelementptr inbounds nuw i8, ptr %0, i64 8
  %9 = load ptr, ptr %8, align 8, !tbaa !143
  %10 = getelementptr inbounds i8, ptr %9, i64 -40
  %11 = getelementptr inbounds i8, ptr %9, i64 -32
  br i1 %.not.i, label %16, label %12

12:                                               ; preds = %7
  %13 = load i64, ptr %11, align 8, !tbaa !21
  %14 = tail call noundef i64 @strlen(ptr noundef nonnull dereferenceable(1) %2) #23
  %15 = tail call noundef nonnull align 8 dereferenceable(32) ptr @_ZNSt7__cxx1112basic_stringIcSt11char_traitsIcESaIcEE10_M_replaceEmmPKcm(ptr noundef nonnull align 8 dereferenceable(32) %10, i64 noundef 0, i64 noundef %13, ptr noundef nonnull %2, i64 noundef %14)
  br label %_Z8get_estrPSt6vectorI9t_inpfileSaIS0_EEPKcS5_.exit

16:                                               ; preds = %7
  store i64 0, ptr %11, align 8, !tbaa !21
  %17 = load ptr, ptr %10, align 8, !tbaa !15
  store i8 0, ptr %17, align 1, !tbaa !24
  br label %_Z8get_estrPSt6vectorI9t_inpfileSaIS0_EEPKcS5_.exit

18:                                               ; preds = %3
  %19 = sext i32 %5 to i64
  %20 = load ptr, ptr %0, align 8, !tbaa !36
  %21 = getelementptr inbounds nuw %struct.t_inpfile, ptr %20, i64 %19, i32 6
  %22 = load ptr, ptr %21, align 8, !tbaa !15
  br label %_Z8get_estrPSt6vectorI9t_inpfileSaIS0_EEPKcS5_.exit

_Z8get_estrPSt6vectorI9t_inpfileSaIS0_EEPKcS5_.exit: ; preds = %12, %16, %18
  %.0.i = phi ptr [ %22, %18 ], [ null, %16 ], [ %2, %12 ]
  ret ptr %.0.i
}